target datalayout = "e-m:e-p270:32:32-p271:32:32-p272:64:64-i64:64-i128:128-f80:128-n8:16:32:64-S128"
target triple = "x86_64-pc-linux-gnu"

%struct.IDAMemRec = type { ptr, double, ptr, ptr, i32, double, double, ptr, i32, i32, ptr, ptr, i32, i32, i32, ptr, ptr, i32, i32, double, double, ptr, i32, i32, i32, i32, ptr, ptr, i32, ptr, ptr, ptr, i32, double, i32, i32, double, ptr, ptr, ptr, i32, ptr, ptr, i32, i32, i32, double, ptr, ptr, ptr, [6 x ptr], [6 x double], [6 x double], [6 x double], [6 x double], [6 x double], ptr, ptr, ptr, ptr, ptr, ptr, ptr, ptr, ptr, ptr, ptr, ptr, ptr, ptr, ptr, ptr, ptr, [6 x ptr], ptr, ptr, ptr, ptr, [6 x ptr], ptr, ptr, ptr, ptr, ptr, ptr, ptr, ptr, ptr, ptr, ptr, ptr, ptr, ptr, ptr, ptr, [6 x ptr], ptr, ptr, ptr, ptr, ptr, double, ptr, ptr, i32, i32, i32, i32, i32, i32, i32, i32, double, double, double, i32, double, i32, i32, i32, i32, i32, double, double, double, double, double, double, double, double, double, double, double, double, double, double, double, double, double, i32, i32, i32, i32, i64, double, double, double, double, double, double, double, double, double, i64, i64, i64, i64, i64, i64, i64, i64, i64, i64, i64, i64, i64, i64, i64, i64, i64, i64, i64, i64, i64, i64, i64, i64, i64, i64, double, i32, i32, i32, i32, i32, i32, i32, i32, i32, i32, i32, i32, i32, ptr, i32, ptr, i32, ptr, i32, ptr, ptr, ptr, ptr, ptr, ptr, i32, i32, ptr, ptr, ptr, ptr, ptr, ptr, ptr, double, i32, i32, ptr, i32, ptr, ptr, double, double, double, ptr, ptr, ptr, double, double, i32, i32, i64, ptr, i32, ptr, [5 x double], ptr, ptr, i32, ptr, i32 }

; Function Attrs: nounwind uwtable
define internal i32 @IDAQuadEwtSetSV(ptr noundef %0, ptr noundef %1, ptr noundef %2) #0 {
  %4 = alloca i32, align 4
  %5 = alloca ptr, align 8
  %6 = alloca ptr, align 8
  %7 = alloca ptr, align 8
  %8 = alloca ptr, align 8
  %9 = alloca i32, align 4
  store ptr %0, ptr %5, align 8, !tbaa !8
  store ptr %1, ptr %6, align 8, !tbaa !124
  store ptr %2, ptr %7, align 8, !tbaa !124
  call void @llvm.lifetime.start.p0(i64 8, ptr %8) #10
  %10 = load ptr, ptr %5, align 8, !tbaa !8
  %11 = getelementptr inbounds nuw %struct.IDAMemRec, ptr %10, i32 0, i32 75
  %12 = load ptr, ptr %11, align 8, !tbaa !197
  store ptr %12, ptr %8, align 8, !tbaa !124
  %13 = load ptr, ptr %6, align 8, !tbaa !124
  %14 = load ptr, ptr %8, align 8, !tbaa !124
  call void @N_VAbs(ptr noundef %13, ptr noundef %14)
  %15 = load ptr, ptr %5, align 8, !tbaa !8
  %16 = getelementptr inbounds nuw %struct.IDAMemRec, ptr %15, i32 0, i32 19
  %17 = load double, ptr %16, align 8, !tbaa !200
  %18 = load ptr, ptr %8, align 8, !tbaa !124
  %19 = load ptr, ptr %5, align 8, !tbaa !8
  %20 = getelementptr inbounds nuw %struct.IDAMemRec, ptr %19, i32 0, i32 21
  %21 = load ptr, ptr %20, align 8, !tbaa !202
  %22 = load ptr, ptr %8, align 8, !tbaa !124
  call void @N_VLinearSum(double noundef %17, ptr noundef %18, double noundef 1.000000e+00, ptr noundef %21, ptr noundef %22)
  %23 = load ptr, ptr %5, align 8, !tbaa !8
  %24 = getelementptr inbounds nuw %struct.IDAMemRec, ptr %23, i32 0, i32 22
  %25 = load i32, ptr %24, align 8, !tbaa !62
  %26 = icmp ne i32 %25, 0
  br i1 %26, label %27, label %33

27:                                               ; preds = %3
  %28 = load ptr, ptr %8, align 8, !tbaa !124
  %29 = call double @N_VMin(ptr noundef %28)
  %30 = fcmp ole double %29, 0.000000e+00
  br i1 %30, label %31, label %32

31:                                               ; preds = %27
  store i32 -1, ptr %4, align 4
  store i32 1, ptr %9, align 4
  br label %36

32:                                               ; preds = %27
  br label %33

33:                                               ; preds = %32, %3
  %34 = load ptr, ptr %8, align 8, !tbaa !124
  %35 = load ptr, ptr %7, align 8, !tbaa !124
  call void @N_VInv(ptr noundef %34, ptr noundef %35)
  store i32 0, ptr %4, align 4
  store i32 1, ptr %9, align 4
  br label %36

36:                                               ; preds = %33, %31
  call void @llvm.lifetime.end.p0(i64 8, ptr %8) #10
  %37 = load i32, ptr %4, align 4
  ret i32 %37
}

; Function Attrs: nounwind uwtable
define internal i32 @IDAQuadEwtSetSS(ptr noundef %0, ptr noundef %1, ptr noundef %2) #0 {
  %4 = alloca i32, align 4
  %5 = alloca ptr, align 8
  %6 = alloca ptr, align 8
  %7 = alloca ptr, align 8
  %8 = alloca ptr, align 8
  %9 = alloca i32, align 4
  store ptr %0, ptr %5, align 8, !tbaa !8
  store ptr %1, ptr %6, align 8, !tbaa !124
  store ptr %2, ptr %7, align 8, !tbaa !124
  call void @llvm.lifetime.start.p0(i64 8, ptr %8) #10
  %10 = load ptr, ptr %5, align 8, !tbaa !8
  %11 = getelementptr inbounds nuw %struct.IDAMemRec, ptr %10, i32 0, i32 75
  %12 = load ptr, ptr %11, align 8, !tbaa !197
  store ptr %12, ptr %8, align 8, !tbaa !124
  %13 = load ptr, ptr %6, align 8, !tbaa !124
  %14 = load ptr, ptr %8, align 8, !tbaa !124
  call void @N_VAbs(ptr noundef %13, ptr noundef %14)
  %15 = load ptr, ptr %5, align 8, !tbaa !8
  %16 = getelementptr inbounds nuw %struct.IDAMemRec, ptr %15, i32 0, i32 19
  %17 = load double, ptr %16, align 8, !tbaa !200
  %18 = load ptr, ptr %8, align 8, !tbaa !124
  %19 = load ptr, ptr %8, align 8, !tbaa !124
  call void @N_VScale(double noundef %17, ptr noundef %18, ptr noundef %19)
  %20 = load ptr, ptr %8, align 8, !tbaa !124
  %21 = load ptr, ptr %5, align 8, !tbaa !8
  %22 = getelementptr inbounds nuw %struct.IDAMemRec, ptr %21, i32 0, i32 20
  %23 = load double, ptr %22, align 8, !tbaa !201
  %24 = load ptr, ptr %8, align 8, !tbaa !124
  call void @N_VAddConst(ptr noundef %20, double noundef %23, ptr noundef %24)
  %25 = load ptr, ptr %5, align 8, !tbaa !8
  %26 = getelementptr inbounds nuw %struct.IDAMemRec, ptr %25, i32 0, i32 22
  %27 = load i32, ptr %26, align 8, !tbaa !62
  %28 = icmp ne i32 %27, 0
  br i1 %28, label %29, label %35

29:                                               ; preds = %3
  %30 = load ptr, ptr %8, align 8, !tbaa !124
  %31 = call double @N_VMin(ptr noundef %30)
  %32 = fcmp ole double %31, 0.000000e+00
  br i1 %32, label %33, label %34

33:                                               ; preds = %29
  store i32 -1, ptr %4, align 4
  store i32 1, ptr %9, align 4
  br label %38

34:                                               ; preds = %29
  br label %35

35:                                               ; preds = %34, %3
  %36 = load ptr, ptr %8, align 8, !tbaa !124
  %37 = load ptr, ptr %7, align 8, !tbaa !124
  call void @N_VInv(ptr noundef %36, ptr noundef %37)
  store i32 0, ptr %4, align 4
  store i32 1, ptr %9, align 4
  br label %38

38:                                               ; preds = %35, %33
  call void @llvm.lifetime.end.p0(i64 8, ptr %8) #10
  %39 = load i32, ptr %4, align 4
  ret i32 %39
}

; Function Attrs: nounwind uwtable
define internal i32 @IDAQuadEwtSet(ptr noundef %0, ptr noundef %1, ptr noundef %2) #0 {
  %4 = alloca ptr, align 8
  %5 = alloca ptr, align 8
  %6 = alloca ptr, align 8
  %7 = alloca i32, align 4
  store ptr %0, ptr %4, align 8, !tbaa !8
  store ptr %1, ptr %5, align 8, !tbaa !124
  store ptr %2, ptr %6, align 8, !tbaa !124
  call void @llvm.lifetime.start.p0(i64 4, ptr %7) #10
  store i32 0, ptr %7, align 4, !tbaa !114
  %8 = load ptr, ptr %4, align 8, !tbaa !8
  %9 = getelementptr inbounds nuw %struct.IDAMemRec, ptr %8, i32 0, i32 18
  %10 = load i32, ptr %9, align 4, !tbaa !61
  switch i32 %10, label %21 [
    i32 1, label %11
    i32 2, label %16
  ]

11:                                               ; preds = %3
  %12 = load ptr, ptr %4, align 8, !tbaa !8
  %13 = load ptr, ptr %5, align 8, !tbaa !124
  %14 = load ptr, ptr %6, align 8, !tbaa !124
  %15 = call i32 @IDAQuadEwtSetSS(ptr noundef %12, ptr noundef %13, ptr noundef %14)
  store i32 %15, ptr %7, align 4, !tbaa !114
  br label %21

16:                                               ; preds = %3
  %17 = load ptr, ptr %4, align 8, !tbaa !8
  %18 = load ptr, ptr %5, align 8, !tbaa !124
  %19 = load ptr, ptr %6, align 8, !tbaa !124
  %20 = call i32 @IDAQuadEwtSetSV(ptr noundef %17, ptr noundef %18, ptr noundef %19)
  store i32 %20, ptr %7, align 4, !tbaa !114
  br label %21

21:                                               ; preds = %3, %16, %11
  %22 = load i32, ptr %7, align 4, !tbaa !114
  call void @llvm.lifetime.end.p0(i64 4, ptr %7) #10
  ret i32 %22
}