; Function Attrs: nounwind uwtable
define internal fastcc range(i32 -1, 1) i32 @IDAQuadEwtSet(ptr noundef readonly captures(none) %0, ptr noundef %1, ptr noundef %2) unnamed_addr #0 {
  %4 = getelementptr inbounds nuw i8, ptr %0, i64 124
  %5 = load i32, ptr %4, align 4, !tbaa !43
  switch i32 %5, label %IDAQuadEwtSetSS.exit [
    i32 1, label %6
    i32 2, label %18
  ]

6:                                                ; preds = %3
  %7 = getelementptr inbounds nuw i8, ptr %0, i64 824
  %8 = load ptr, ptr %7, align 8, !tbaa !157
  tail call void @N_VAbs(ptr noundef %1, ptr noundef %8) #14
  %9 = getelementptr inbounds nuw i8, ptr %0, i64 128
  %10 = load double, ptr %9, align 8, !tbaa !163
  tail call void @N_VScale(double noundef %10, ptr noundef %8, ptr noundef %8) #14
  %11 = getelementptr inbounds nuw i8, ptr %0, i64 136
  %12 = load double, ptr %11, align 8, !tbaa !164
  tail call void @N_VAddConst(ptr noundef %8, double noundef %12, ptr noundef %8) #14
  %13 = getelementptr inbounds nuw i8, ptr %0, i64 152
  %14 = load i32, ptr %13, align 8, !tbaa !44
  %.not.i = icmp eq i32 %14, 0
  br i1 %.not.i, label %IDAQuadEwtSetSS.exit.sink.split, label %15

15:                                               ; preds = %6
  %16 = tail call double @N_VMin(ptr noundef %8) #14
  %17 = fcmp ugt double %16, 0.000000e+00
  br i1 %17, label %IDAQuadEwtSetSS.exit.sink.split, label %IDAQuadEwtSetSS.exit

18:                                               ; preds = %3
  %19 = getelementptr inbounds nuw i8, ptr %0, i64 824
  %20 = load ptr, ptr %19, align 8, !tbaa !157
  tail call void @N_VAbs(ptr noundef %1, ptr noundef %20) #14
  %21 = getelementptr inbounds nuw i8, ptr %0, i64 128
  %22 = load double, ptr %21, align 8, !tbaa !163
  %23 = getelementptr inbounds nuw i8, ptr %0, i64 144
  %24 = load ptr, ptr %23, align 8, !tbaa !166
  tail call void @N_VLinearSum(double noundef %22, ptr noundef %20, double noundef 1.000000e+00, ptr noundef %24, ptr noundef %20) #14
  %25 = getelementptr inbounds nuw i8, ptr %0, i64 152
  %26 = load i32, ptr %25, align 8, !tbaa !44
  %.not.i7 = icmp eq i32 %26, 0
  br i1 %.not.i7, label %IDAQuadEwtSetSS.exit.sink.split, label %27

27:                                               ; preds = %18
  %28 = tail call double @N_VMin(ptr noundef %20) #14
  %29 = fcmp ugt double %28, 0.000000e+00
  br i1 %29, label %IDAQuadEwtSetSS.exit.sink.split, label %IDAQuadEwtSetSS.exit

IDAQuadEwtSetSS.exit.sink.split:                  ; preds = %18, %27, %6, %15
  %.sink = phi ptr [ %8, %15 ], [ %8, %6 ], [ %20, %27 ], [ %20, %18 ]
  tail call void @N_VInv(ptr noundef %.sink, ptr noundef %2) #14
  br label %IDAQuadEwtSetSS.exit

IDAQuadEwtSetSS.exit:                             ; preds = %IDAQuadEwtSetSS.exit.sink.split, %27, %15, %3
  %.0 = phi i32 [ 0, %3 ], [ -1, %15 ], [ -1, %27 ], [ 0, %IDAQuadEwtSetSS.exit.sink.split ]
  ret i32 %.0
}